; ModuleID = 'source-C-CXX/27/1447.c'
source_filename = "source-C-CXX/27/1447.c"
target datalayout = "e-m:e-p270:32:32-p271:32:32-p272:64:64-i64:64-f80:128-n8:16:32:64-S128"
target triple = "x86_64-pc-linux-gnu"

%struct._IO_FILE = type { i32, i8*, i8*, i8*, i8*, i8*, i8*, i8*, i8*, i8*, i8*, i8*, %struct._IO_marker*, %struct._IO_FILE*, i32, i32, i64, i16, i8, [1 x i8], i8*, i64, %struct._IO_codecvt*, %struct._IO_wide_data*, %struct._IO_FILE*, i8*, i64, i32, [20 x i8] }
%struct._IO_marker = type opaque
%struct._IO_codecvt = type opaque
%struct._IO_wide_data = type opaque

@.str.1 = private unnamed_addr constant [3 x i8] c"%d\00", align 1
@stdin = external local_unnamed_addr global %struct._IO_FILE*, align 8

; Function Attrs: nounwind sspstrong uwtable
define dso_local i32 @main() local_unnamed_addr #0 {
  %1 = alloca [100 x i8], align 16
  %2 = getelementptr inbounds [100 x i8], [100 x i8]* %1, i64 0, i64 0
  call void @llvm.lifetime.start.p0i8(i64 100, i8* nonnull %2) #5
  %3 = call i32 (i8*, ...) bitcast (i32 (...)* @gets to i32 (i8*, ...)*)(i8* nonnull %2) #5
  br label %4

4:                                                ; preds = %26, %0
  %5 = phi i64 [ %29, %26 ], [ 0, %0 ]
  %6 = phi i32 [ %28, %26 ], [ 0, %0 ]
  %7 = phi i32 [ %27, %26 ], [ 0, %0 ]
  %8 = getelementptr inbounds [100 x i8], [100 x i8]* %1, i64 0, i64 %5
  %9 = load i8, i8* %8, align 1, !tbaa !5
  switch i8 %9, label %10 [
    i8 32, label %12
    i8 0, label %12
  ]

10:                                               ; preds = %4
  %11 = add nsw i32 %7, 1
  br label %26

12:                                               ; preds = %4, %4
  %13 = icmp eq i32 %7, 0
  br i1 %13, label %22, label %14

14:                                               ; preds = %12
  %15 = icmp eq i32 %6, 0
  br i1 %15, label %18, label %16

16:                                               ; preds = %14
  %17 = call i32 @putchar(i32 44)
  br label %18

18:                                               ; preds = %16, %14
  %19 = call i32 (i8*, ...) @printf(i8* nonnull dereferenceable(1) getelementptr inbounds ([3 x i8], [3 x i8]* @.str.1, i64 0, i64 0), i32 %7)
  %20 = add nsw i32 %6, 1
  %21 = load i8, i8* %8, align 1, !tbaa !5
  br label %22

22:                                               ; preds = %12, %18
  %23 = phi i8 [ %9, %12 ], [ %21, %18 ]
  %24 = phi i32 [ %6, %12 ], [ %20, %18 ]
  %25 = icmp eq i8 %23, 0
  br i1 %25, label %30, label %26

26:                                               ; preds = %10, %22
  %27 = phi i32 [ %11, %10 ], [ 0, %22 ]
  %28 = phi i32 [ %6, %10 ], [ %24, %22 ]
  %29 = add nuw i64 %5, 1
  br label %4

30:                                               ; preds = %22
  %31 = load %struct._IO_FILE*, %struct._IO_FILE** @stdin, align 8, !tbaa !8
  %32 = call i32 @getc(%struct._IO_FILE* %31) #5
  %33 = load %struct._IO_FILE*, %struct._IO_FILE** @stdin, align 8, !tbaa !8
  %34 = call i32 @getc(%struct._IO_FILE* %33) #5
  call void @llvm.lifetime.end.p0i8(i64 100, i8* nonnull %2) #5
  ret i32 0
}

; Function Attrs: argmemonly mustprogress nofree nosync nounwind willreturn
declare void @llvm.lifetime.start.p0i8(i64 immarg, i8* nocapture) #1

declare i32 @gets(...) local_unnamed_addr #2

; Function Attrs: nofree nounwind
declare noundef i32 @printf(i8* nocapture noundef readonly, ...) local_unnamed_addr #3

; Function Attrs: argmemonly mustprogress nofree nosync nounwind willreturn
declare void @llvm.lifetime.end.p0i8(i64 immarg, i8* nocapture) #1

; Function Attrs: nofree nounwind
declare noundef i32 @getc(%struct._IO_FILE* nocapture noundef) local_unnamed_addr #3

; Function Attrs: nofree nounwind
declare noundef i32 @putchar(i32 noundef) local_unnamed_addr #4


!llvm.module.flags = !{!0, !1, !2, !3}
!llvm.ident = !{!4}

!0 = !{i32 1, !"wchar_size", i32 4}
!1 = !{i32 7, !"PIC Level", i32 2}
!2 = !{i32 7, !"PIE Level", i32 2}
!3 = !{i32 7, !"uwtable", i32 1}
!4 = !{!"clang version 13.0.0"}
!5 = !{!6, !6, i64 0}
!6 = !{!"omnipotent char", !7, i64 0}
!7 = !{!"Simple C/C++ TBAA"}
!8 = !{!9, !9, i64 0}
!9 = !{!"any pointer", !6, i64 0}
